
Allocating common symbols
Common symbol       size              file

errno               0x4               ch32v003fun.o

Discarded input sections

 .text          0x0000000000000000        0x0 main.o
 .data          0x0000000000000000        0x0 main.o
 .bss           0x0000000000000000        0x0 main.o
 .text.SystemInit
                0x0000000000000000        0x2 main.o
 .data.ADCPrescTable
                0x0000000000000000       0x14 main.o
 .data.APBAHBPrescTable
                0x0000000000000000       0x10 main.o
 .text          0x0000000000000000        0x0 ch32v003fun.o
 .data          0x0000000000000000        0x0 ch32v003fun.o
 .bss           0x0000000000000000        0x0 ch32v003fun.o
 .text.__puts_uart
                0x0000000000000000       0x28 ch32v003fun.o
 .text.twoway_strstr
                0x0000000000000000      0x2be ch32v003fun.o
 .text.mini_pad
                0x0000000000000000       0x86 ch32v003fun.o
 .text._puts    0x0000000000000000       0x56 ch32v003fun.o
 .text.mini_itoa.part.0
                0x0000000000000000       0xde ch32v003fun.o
 .text.wcrtomb  0x0000000000000000       0x30 ch32v003fun.o
 .text.wctomb   0x0000000000000000       0x30 ch32v003fun.o
 .text.strlen   0x0000000000000000       0x1a ch32v003fun.o
 .text.strnlen  0x0000000000000000       0x2c ch32v003fun.o
 .text.memset   0x0000000000000000       0x18 ch32v003fun.o
 .text.strcpy   0x0000000000000000       0x1a ch32v003fun.o
 .text.strncpy  0x0000000000000000       0x2a ch32v003fun.o
 .text.strcmp   0x0000000000000000       0x2c ch32v003fun.o
 .text.strncmp  0x0000000000000000       0x42 ch32v003fun.o
 .text.strchr   0x0000000000000000       0x2e ch32v003fun.o
 .text.strstr   0x0000000000000000      0x13c ch32v003fun.o
 .text.__memrchr
                0x0000000000000000       0x22 ch32v003fun.o
 .text.strrchr  0x0000000000000000       0x3c ch32v003fun.o
 .text.memcpy   0x0000000000000000       0x18 ch32v003fun.o
 .text.memcmp   0x0000000000000000       0x30 ch32v003fun.o
 .text.memmove  0x0000000000000000       0x62 ch32v003fun.o
 .text.memchr   0x0000000000000000       0x26 ch32v003fun.o
 .text.puts     0x0000000000000000       0x5c ch32v003fun.o
 .text.mini_vpprintf
                0x0000000000000000      0x28e ch32v003fun.o
 .text.printf   0x0000000000000000       0x34 ch32v003fun.o
 .text.mini_vsnprintf
                0x0000000000000000       0x4c ch32v003fun.o
 .text.mini_snprintf
                0x0000000000000000       0x20 ch32v003fun.o
 .text.mini_pprintf
                0x0000000000000000       0x20 ch32v003fun.o
 .text.SystemInit48HSI
                0x0000000000000000       0x60 ch32v003fun.o
 .text.SetupUART
                0x0000000000000000       0x74 ch32v003fun.o
 .text._write   0x0000000000000000       0x30 ch32v003fun.o
 .text.DelaySysTick
                0x0000000000000000       0x44 ch32v003fun.o
 .data.ADCPrescTable
                0x0000000000000000       0x14 ch32v003fun.o
 .data.APBAHBPrescTable
                0x0000000000000000       0x10 ch32v003fun.o
 COMMON         0x0000000000000000        0x4 ch32v003fun.o

Memory Configuration

Name             Origin             Length             Attributes
FLASH            0x0000000000000000 0x0000000000004000 xr
RAM              0x0000000020000000 0x0000000000000800 xrw
*default*        0x0000000000000000 0xffffffffffffffff

Linker script and memory map

LOAD main.o
LOAD ch32v003fun.o
                0x0000000000000100                __stack_size = 0x100
                [!provide]                        PROVIDE (_stack_size = __stack_size)

.init           0x0000000000000000       0xa0
                0x0000000000000000                _sinit = .
                0x0000000000000000                . = ALIGN (0x4)
 *(SORT_NONE(.init))
 .init          0x0000000000000000       0x9e ch32v003fun.o
                0x0000000000000000                InterruptVector
                0x00000000000000a0                . = ALIGN (0x4)
 *fill*         0x000000000000009e        0x2 
                0x00000000000000a0                _einit = .

.text           0x00000000000000a0      0x198
                0x00000000000000a0                . = ALIGN (0x4)
 *(.text)
 *(.text.*)
 .text.startup.main
                0x00000000000000a0      0x10c main.o
                0x00000000000000a0                main
 .text.handle_reset
                0x00000000000001ac       0x88 ch32v003fun.o
                0x00000000000001ac                handle_reset
 .text.vector_handler
                0x0000000000000234        0x4 ch32v003fun.o
                0x0000000000000234                TIM1_CC_IRQHandler
                0x0000000000000234                HardFault_Handler
                0x0000000000000234                SysTick_Handler
                0x0000000000000234                PVD_IRQHandler
                0x0000000000000234                NMI_Handler
                0x0000000000000234                SPI1_IRQHandler
                0x0000000000000234                AWU_IRQHandler
                0x0000000000000234                EXTI7_0_IRQHandler
                0x0000000000000234                DMA1_Channel4_IRQHandler
                0x0000000000000234                ADC1_IRQHandler
                0x0000000000000234                DMA1_Channel7_IRQHandler
                0x0000000000000234                I2C1_EV_IRQHandler
                0x0000000000000234                DMA1_Channel6_IRQHandler
                0x0000000000000234                RCC_IRQHandler
                0x0000000000000234                TIM1_TRG_COM_IRQHandler
                0x0000000000000234                DMA1_Channel1_IRQHandler
                0x0000000000000234                DefaultIRQHandler
                0x0000000000000234                DMA1_Channel5_IRQHandler
                0x0000000000000234                DMA1_Channel3_IRQHandler
                0x0000000000000234                TIM1_UP_IRQHandler
                0x0000000000000234                WWDG_IRQHandler
                0x0000000000000234                TIM2_IRQHandler
                0x0000000000000234                SW_Handler
                0x0000000000000234                TIM1_BRK_IRQHandler
                0x0000000000000234                DMA1_Channel2_IRQHandler
                0x0000000000000234                FLASH_IRQHandler
                0x0000000000000234                USART1_IRQHandler
                0x0000000000000234                I2C1_ER_IRQHandler
 *(.rodata)
 *(.rodata*)
 *(.gnu.linkonce.t.*)
                0x0000000000000238                . = ALIGN (0x4)

.rela.dyn       0x0000000000000238        0x0
 .rela.init     0x0000000000000238        0x0 main.o
 .rela.text.handle_reset
                0x0000000000000238        0x0 main.o

.fini           0x0000000000000238        0x0
 *(SORT_NONE(.fini))
                0x0000000000000238                . = ALIGN (0x4)
                [!provide]                        PROVIDE (_etext = .)
                [!provide]                        PROVIDE (_eitcm = .)

.preinit_array  0x0000000000000238        0x0
                [!provide]                        PROVIDE (__preinit_array_start = .)
 *(.preinit_array)
                [!provide]                        PROVIDE (__preinit_array_end = .)

.init_array     0x0000000000000238        0x0
                [!provide]                        PROVIDE (__init_array_start = .)
 *(SORT_BY_INIT_PRIORITY(.init_array.*) SORT_BY_INIT_PRIORITY(.ctors.*))
 *(.init_array EXCLUDE_FILE(*crtend?.o *crtend.o *crtbegin?.o *crtbegin.o) .ctors)
                [!provide]                        PROVIDE (__init_array_end = .)

.fini_array     0x0000000000000238        0x0
                [!provide]                        PROVIDE (__fini_array_start = .)
 *(SORT_BY_INIT_PRIORITY(.fini_array.*) SORT_BY_INIT_PRIORITY(.dtors.*))
 *(.fini_array EXCLUDE_FILE(*crtend?.o *crtend.o *crtbegin?.o *crtbegin.o) .dtors)
                [!provide]                        PROVIDE (__fini_array_end = .)

.ctors
 *crtbegin.o(.ctors)
 *crtbegin?.o(.ctors)
 *(EXCLUDE_FILE(*crtend?.o *crtend.o) .ctors)
 *(SORT_BY_NAME(.ctors.*))
 *(.ctors)

.dtors
 *crtbegin.o(.dtors)
 *crtbegin?.o(.dtors)
 *(EXCLUDE_FILE(*crtend?.o *crtend.o) .dtors)
 *(SORT_BY_NAME(.dtors.*))
 *(.dtors)

.dalign         0x0000000020000000        0x0 load address 0x0000000000000238
                0x0000000020000000                . = ALIGN (0x4)
                0x0000000020000000                PROVIDE (_data_vma = .)

.dlalign        0x0000000000000238        0x0
                0x0000000000000238                . = ALIGN (0x4)
                0x0000000000000238                PROVIDE (_data_lma = .)

.data           0x0000000020000000        0x0 load address 0x0000000000000238
                0x0000000020000000                . = ALIGN (0x4)
 *(.gnu.linkonce.r.*)
 *(.data .data.*)
 *(.gnu.linkonce.d.*)
                0x0000000020000000                . = ALIGN (0x8)
                0x0000000020000800                PROVIDE (__global_pointer$ = (. + 0x800))
 *(.sdata .sdata.*)
 *(.sdata2*)
 *(.gnu.linkonce.s.*)
                0x0000000020000000                . = ALIGN (0x8)
 *(.srodata.cst16)
 *(.srodata.cst8)
 *(.srodata.cst4)
 *(.srodata.cst2)
 *(.srodata .srodata.*)
                0x0000000020000000                . = ALIGN (0x4)
                0x0000000020000000                PROVIDE (_edata = .)

.bss            0x0000000020000000        0x0 load address 0x0000000000000238
                0x0000000020000000                . = ALIGN (0x4)
                0x0000000020000000                PROVIDE (_sbss = .)
 *(.sbss*)
 *(.gnu.linkonce.sb.*)
 *(.bss*)
 *(.gnu.linkonce.b.*)
 *(COMMON*)
                0x0000000020000000                . = ALIGN (0x4)
                0x0000000020000000                PROVIDE (_ebss = .)
                [!provide]                        PROVIDE (_end = _ebss)
                [!provide]                        PROVIDE (end = .)

.stack          0x0000000020000700      0x100
                [!provide]                        PROVIDE (_heap_end = .)
                0x0000000020000700                . = ALIGN (0x4)
                [!provide]                        PROVIDE (_susrstack = .)
                0x0000000020000800                . = (. + __stack_size)
 *fill*         0x0000000020000700      0x100 
                0x0000000020000800                PROVIDE (_eusrstack = .)
OUTPUT(/nvme1t/work/codex/ai-embedded-lab/artifacts/build_ch32v003xxx/ch32v003_gpio_loopback.elf elf32-littleriscv)

.debug_info     0x0000000000000000     0x277f
 .debug_info    0x0000000000000000      0x37e main.o
 .debug_info    0x000000000000037e     0x2401 ch32v003fun.o

.debug_abbrev   0x0000000000000000      0x79f
 .debug_abbrev  0x0000000000000000      0x18d main.o
 .debug_abbrev  0x000000000000018d      0x612 ch32v003fun.o

.debug_loc      0x0000000000000000     0x2763
 .debug_loc     0x0000000000000000       0xa4 main.o
 .debug_loc     0x00000000000000a4     0x26bf ch32v003fun.o

.debug_aranges  0x0000000000000000      0x158
 .debug_aranges
                0x0000000000000000       0x28 main.o
 .debug_aranges
                0x0000000000000028      0x130 ch32v003fun.o

.debug_ranges   0x0000000000000000      0x388
 .debug_ranges  0x0000000000000000       0x88 main.o
 .debug_ranges  0x0000000000000088      0x300 ch32v003fun.o

.debug_line     0x0000000000000000     0x2e06
 .debug_line    0x0000000000000000      0x4cf main.o
 .debug_line    0x00000000000004cf     0x2937 ch32v003fun.o

.debug_str      0x0000000000000000      0x968
 .debug_str     0x0000000000000000      0x236 main.o
                                        0x287 (size before relaxing)
 .debug_str     0x0000000000000236      0x732 ch32v003fun.o
                                        0x9bb (size before relaxing)

.comment        0x0000000000000000       0x33
 .comment       0x0000000000000000       0x33 main.o
                                         0x34 (size before relaxing)
 .comment       0x0000000000000033       0x34 ch32v003fun.o

.debug_frame    0x0000000000000000      0x318
 .debug_frame   0x0000000000000000       0x34 main.o
 .debug_frame   0x0000000000000034      0x2e4 ch32v003fun.o
